; Function Attrs: mustprogress nounwind uwtable
define internal void @_ZNK12_GLOBAL__N_128ParsedAttrInfoNSConsumesSelf28getPragmaAttributeMatchRulesERN4llvm15SmallVectorImplISt4pairIN5clang4attr16SubjectMatchRuleEbEEERKNS4_11LangOptionsE(ptr nocapture nonnull readnone align 8 %0, ptr noundef nonnull align 8 dereferenceable(16) %1, ptr nocapture noundef nonnull readonly align 8 dereferenceable(841) %2) unnamed_addr #0 align 2 {
  %4 = load i64, ptr %2, align 8
  %5 = tail call noundef i64 @_ZNK4llvm15SmallVectorBaseIjE4sizeEv(ptr noundef nonnull align 8 dereferenceable(16) %1) #18
  %6 = add i64 %5, 1
  %7 = tail call noundef i64 @_ZNK4llvm15SmallVectorBaseIjE8capacityEv(ptr noundef nonnull align 8 dereferenceable(16) %1) #18
  %.not.i.i.i = icmp ugt i64 %6, %7
  br i1 %.not.i.i.i, label %8, label %_ZN4llvm23SmallVectorTemplateBaseISt4pairIN5clang4attr16SubjectMatchRuleEbELb1EE9push_backES5_.exit

8:                                                ; preds = %3
  %9 = getelementptr inbounds i8, ptr %1, i64 16
  tail call void @_ZN4llvm15SmallVectorBaseIjE8grow_podEPvmm(ptr noundef nonnull align 8 dereferenceable(16) %1, ptr noundef nonnull %9, i64 noundef %6, i64 noundef 8) #18
  br label %_ZN4llvm23SmallVectorTemplateBaseISt4pairIN5clang4attr16SubjectMatchRuleEbELb1EE9push_backES5_.exit

_ZN4llvm23SmallVectorTemplateBaseISt4pairIN5clang4attr16SubjectMatchRuleEbELb1EE9push_backES5_.exit: ; preds = %3, %8
  %10 = shl i64 %4, 14
  %.sroa.24.0.insert.shift = and i64 %10, 4294967296
  %.sroa.03.0.insert.insert = or disjoint i64 %.sroa.24.0.insert.shift, 10
  %11 = load ptr, ptr %1, align 8
  %12 = tail call noundef i64 @_ZNK4llvm15SmallVectorBaseIjE4sizeEv(ptr noundef nonnull align 8 dereferenceable(16) %1) #18
  %13 = getelementptr inbounds %"struct.std::pair.1127", ptr %11, i64 %12
  store i64 %.sroa.03.0.insert.insert, ptr %13, align 1
  %14 = tail call noundef i64 @_ZNK4llvm15SmallVectorBaseIjE4sizeEv(ptr noundef nonnull align 8 dereferenceable(16) %1) #18
  %15 = add i64 %14, 1
  tail call void @_ZN4llvm15SmallVectorBaseIjE8set_sizeEm(ptr noundef nonnull align 8 dereferenceable(16) %1, i64 noundef %15) #18
  ret void
}